; Function Attrs: mustprogress uwtable
define internal void @_ZN7rocksdb12_GLOBAL__N_19VectorRep8Iterator10SeekToLastEv(ptr nocapture noundef nonnull align 8 dereferenceable(81) %this) unnamed_addr #3 align 2 {
entry:
  tail call fastcc void @_ZNK7rocksdb12_GLOBAL__N_19VectorRep8Iterator6DoSortEv(ptr noundef nonnull align 8 dereferenceable(81) %this)
  %bucket_ = getelementptr inbounds i8, ptr %this, i64 16
  %0 = load ptr, ptr %bucket_, align 8
  %_M_finish.i = getelementptr inbounds i8, ptr %0, i64 8
  %1 = load ptr, ptr %_M_finish.i, align 8
  %cit_ = getelementptr inbounds i8, ptr %this, i64 32
  %2 = ptrtoint ptr %1 to i64
  store i64 %2, ptr %cit_, align 8
  %3 = load ptr, ptr %_M_finish.i, align 8
  %4 = load ptr, ptr %0, align 8
  %cmp.not = icmp eq ptr %3, %4
  br i1 %cmp.not, label %if.end, label %if.then

if.then:                                          ; preds = %entry
  %incdec.ptr.i = getelementptr inbounds i8, ptr %1, i64 -8
  store ptr %incdec.ptr.i, ptr %cit_, align 8
  br label %if.end

if.end:                                           ; preds = %if.then, %entry
  ret void
}